; ModuleID = 'source-C-CXX/54/984.cpp'
source_filename = "source-C-CXX/54/984.cpp"
target datalayout = "e-m:e-p270:32:32-p271:32:32-p272:64:64-i64:64-f80:128-n8:16:32:64-S128"
target triple = "x86_64-pc-linux-gnu"

%"class.std::ios_base::Init" = type { i8 }
%"class.std::basic_istream" = type { i32 (...)**, i64, %"class.std::basic_ios" }
%"class.std::basic_ios" = type { %"class.std::ios_base", %"class.std::basic_ostream"*, i8, i8, %"class.std::basic_streambuf"*, %"class.std::ctype"*, %"class.std::num_put"*, %"class.std::num_get"* }
%"class.std::ios_base" = type { i32 (...)**, i64, i64, i32, i32, i32, %"struct.std::ios_base::_Callback_list"*, %"struct.std::ios_base::_Words", [8 x %"struct.std::ios_base::_Words"], i32, %"struct.std::ios_base::_Words"*, %"class.std::locale" }
%"struct.std::ios_base::_Callback_list" = type { %"struct.std::ios_base::_Callback_list"*, void (i32, %"class.std::ios_base"*, i32)*, i32, i32 }
%"struct.std::ios_base::_Words" = type { i8*, i64 }
%"class.std::locale" = type { %"class.std::locale::_Impl"* }
%"class.std::locale::_Impl" = type { i32, %"class.std::locale::facet"**, i64, %"class.std::locale::facet"**, i8** }
%"class.std::locale::facet" = type <{ i32 (...)**, i32, [4 x i8] }>
%"class.std::basic_ostream" = type { i32 (...)**, %"class.std::basic_ios" }
%"class.std::basic_streambuf" = type { i32 (...)**, i8*, i8*, i8*, i8*, i8*, i8*, %"class.std::locale" }
%"class.std::ctype" = type <{ %"class.std::locale::facet.base", [4 x i8], %struct.__locale_struct*, i8, [7 x i8], i32*, i32*, i16*, i8, [256 x i8], [256 x i8], i8, [6 x i8] }>
%"class.std::locale::facet.base" = type <{ i32 (...)**, i32 }>
%struct.__locale_struct = type { [13 x %struct.__locale_data*], i16*, i32*, i32*, [13 x i8*] }
%struct.__locale_data = type opaque
%"class.std::num_put" = type { %"class.std::locale::facet.base", [4 x i8] }
%"class.std::num_get" = type { %"class.std::locale::facet.base", [4 x i8] }

@_ZStL8__ioinit = internal global %"class.std::ios_base::Init" zeroinitializer, align 1
@__dso_handle = external hidden global i8
@_ZSt3cin = external global %"class.std::basic_istream", align 8
@_ZSt4cout = external global %"class.std::basic_ostream", align 8
@llvm.global_ctors = appending global [1 x { i32, void ()*, i8* }] [{ i32, void ()*, i8* } { i32 65535, void ()* @_GLOBAL__sub_I_984.cpp, i8* null }]

declare void @_ZNSt8ios_base4InitC1Ev(%"class.std::ios_base::Init"* nonnull align 1 dereferenceable(1)) unnamed_addr #0

; Function Attrs: nounwind
declare void @_ZNSt8ios_base4InitD1Ev(%"class.std::ios_base::Init"* nonnull align 1 dereferenceable(1)) unnamed_addr #1

; Function Attrs: nofree nounwind
declare i32 @__cxa_atexit(void (i8*)*, i8*, i8*) local_unnamed_addr #2

; Function Attrs: mustprogress norecurse sspstrong uwtable
define dso_local i32 @main() local_unnamed_addr #3 {
  %1 = alloca i8, align 1
  %2 = alloca i32, align 4
  %3 = alloca i32, align 4
  %4 = alloca [100 x i8], align 16
  %5 = alloca [100 x i8], align 16
  %6 = bitcast i32* %2 to i8*
  call void @llvm.lifetime.start.p0i8(i64 4, i8* nonnull %6) #8
  %7 = bitcast i32* %3 to i8*
  call void @llvm.lifetime.start.p0i8(i64 4, i8* nonnull %7) #8
  %8 = getelementptr inbounds [100 x i8], [100 x i8]* %4, i64 0, i64 0
  call void @llvm.lifetime.start.p0i8(i64 100, i8* nonnull %8) #8
  %9 = getelementptr inbounds [100 x i8], [100 x i8]* %5, i64 0, i64 0
  call void @llvm.lifetime.start.p0i8(i64 100, i8* nonnull %9) #8
  %10 = call nonnull align 8 dereferenceable(16) %"class.std::basic_istream"* @_ZNSirsERi(%"class.std::basic_istream"* nonnull align 8 dereferenceable(16) @_ZSt3cin, i32* nonnull align 4 dereferenceable(4) %2)
  call void @_ZSt17__istream_extractRSiPcl(%"class.std::basic_istream"* nonnull align 8 dereferenceable(16) %10, i8* nonnull %8, i64 100)
  %11 = call nonnull align 8 dereferenceable(16) %"class.std::basic_istream"* @_ZNSirsERi(%"class.std::basic_istream"* nonnull align 8 dereferenceable(16) %10, i32* nonnull align 4 dereferenceable(4) %3)
  %12 = call i64 @strlen(i8* noundef nonnull %8) #9
  %13 = uitofp i64 %12 to double
  %14 = icmp eq i64 %12, 0
  br i1 %14, label %15, label %24

15:                                               ; preds = %24, %0
  %16 = phi i32 [ 0, %0 ], [ %47, %24 ]
  %17 = load i32, i32* %3, align 4, !tbaa !5
  %18 = sdiv i32 %16, %17
  %19 = srem i32 %16, %17
  %20 = icmp eq i32 %18, 0
  br i1 %20, label %21, label %52

21:                                               ; preds = %15
  %22 = trunc i32 %19 to i8
  %23 = getelementptr inbounds [100 x i8], [100 x i8]* %5, i64 0, i64 0
  store i8 %22, i8* %23, align 16, !tbaa !9
  br label %69

24:                                               ; preds = %0, %24
  %25 = phi i64 [ %48, %24 ], [ 0, %0 ]
  %26 = phi double [ %50, %24 ], [ 0.000000e+00, %0 ]
  %27 = phi i32 [ %47, %24 ], [ 0, %0 ]
  %28 = getelementptr inbounds [100 x i8], [100 x i8]* %4, i64 0, i64 %25
  %29 = load i8, i8* %28, align 1, !tbaa !9
  %30 = sext i8 %29 to i32
  %31 = add i8 %29, -65
  %32 = icmp ult i8 %31, 26
  %33 = add i8 %29, -97
  %34 = icmp ult i8 %33, 26
  %35 = select i1 %34, i32 -87, i32 -48
  %36 = select i1 %32, i32 -55, i32 %35
  %37 = add nsw i32 %36, %30
  %38 = sitofp i32 %37 to double
  %39 = load i32, i32* %2, align 4, !tbaa !5
  %40 = sitofp i32 %39 to double
  %41 = fsub double %13, %26
  %42 = fadd double %41, -1.000000e+00
  %43 = call double @pow(double %40, double %42) #8
  %44 = fmul double %43, %38
  %45 = sitofp i32 %27 to double
  %46 = fadd double %44, %45
  %47 = fptosi double %46 to i32
  %48 = add nuw i64 %25, 1
  %49 = trunc i64 %48 to i32
  %50 = sitofp i32 %49 to double
  %51 = fcmp olt double %50, %13
  br i1 %51, label %24, label %15, !llvm.loop !10

52:                                               ; preds = %15, %52
  %53 = phi i64 [ %59, %52 ], [ 0, %15 ]
  %54 = phi i32 [ %60, %52 ], [ %18, %15 ]
  %55 = phi i32 [ %54, %52 ], [ %16, %15 ]
  %56 = srem i32 %55, %17
  %57 = trunc i32 %56 to i8
  %58 = getelementptr inbounds [100 x i8], [100 x i8]* %5, i64 0, i64 %53
  store i8 %57, i8* %58, align 1, !tbaa !9
  %59 = add nuw i64 %53, 1
  %60 = sdiv i32 %54, %17
  %61 = srem i32 %54, %17
  %62 = icmp eq i32 %60, 0
  br i1 %62, label %63, label %52, !llvm.loop !12

63:                                               ; preds = %52
  %64 = trunc i64 %59 to i32
  %65 = trunc i32 %61 to i8
  %66 = and i64 %59, 4294967295
  %67 = getelementptr inbounds [100 x i8], [100 x i8]* %5, i64 0, i64 %66
  store i8 %65, i8* %67, align 1, !tbaa !9
  %68 = icmp sgt i32 %64, -1
  br i1 %68, label %69, label %89

69:                                               ; preds = %21, %63
  %70 = phi i64 [ 0, %21 ], [ %66, %63 ]
  %71 = phi i8 [ %22, %21 ], [ %65, %63 ]
  %72 = getelementptr inbounds [100 x i8], [100 x i8]* %5, i64 0, i64 %70
  %73 = icmp sgt i8 %71, 9
  %74 = select i1 %73, i8 55, i8 48
  %75 = add i8 %74, %71
  store i8 %75, i8* %72, align 1, !tbaa !9
  call void @llvm.lifetime.start.p0i8(i64 1, i8* nonnull %1)
  store i8 %75, i8* %1, align 1, !tbaa !9
  %76 = call nonnull align 8 dereferenceable(8) %"class.std::basic_ostream"* @_ZSt16__ostream_insertIcSt11char_traitsIcEERSt13basic_ostreamIT_T0_ES6_PKS3_l(%"class.std::basic_ostream"* nonnull align 8 dereferenceable(8) @_ZSt4cout, i8* nonnull %1, i64 1)
  call void @llvm.lifetime.end.p0i8(i64 1, i8* nonnull %1)
  %77 = icmp eq i64 %70, 0
  br i1 %77, label %89, label %78, !llvm.loop !13

78:                                               ; preds = %69, %78
  %79 = phi i64 [ %80, %78 ], [ %70, %69 ]
  %80 = add nsw i64 %79, -1
  %81 = getelementptr inbounds [100 x i8], [100 x i8]* %5, i64 0, i64 %80
  %82 = load i8, i8* %81, align 1, !tbaa !9
  %83 = getelementptr inbounds [100 x i8], [100 x i8]* %5, i64 0, i64 %80
  %84 = icmp sgt i8 %82, 9
  %85 = select i1 %84, i8 55, i8 48
  %86 = add i8 %85, %82
  store i8 %86, i8* %83, align 1, !tbaa !9
  call void @llvm.lifetime.start.p0i8(i64 1, i8* nonnull %1)
  store i8 %86, i8* %1, align 1, !tbaa !9
  %87 = call nonnull align 8 dereferenceable(8) %"class.std::basic_ostream"* @_ZSt16__ostream_insertIcSt11char_traitsIcEERSt13basic_ostreamIT_T0_ES6_PKS3_l(%"class.std::basic_ostream"* nonnull align 8 dereferenceable(8) @_ZSt4cout, i8* nonnull %1, i64 1)
  call void @llvm.lifetime.end.p0i8(i64 1, i8* nonnull %1)
  %88 = icmp sgt i64 %79, 1
  br i1 %88, label %78, label %89, !llvm.loop !13

89:                                               ; preds = %78, %69, %63
  call void @llvm.lifetime.end.p0i8(i64 100, i8* nonnull %9) #8
  call void @llvm.lifetime.end.p0i8(i64 100, i8* nonnull %8) #8
  call void @llvm.lifetime.end.p0i8(i64 4, i8* nonnull %7) #8
  call void @llvm.lifetime.end.p0i8(i64 4, i8* nonnull %6) #8
  ret i32 0
}

; Function Attrs: argmemonly mustprogress nofree nosync nounwind willreturn
declare void @llvm.lifetime.start.p0i8(i64 immarg, i8* nocapture) #4

declare nonnull align 8 dereferenceable(16) %"class.std::basic_istream"* @_ZNSirsERi(%"class.std::basic_istream"* nonnull align 8 dereferenceable(16), i32* nonnull align 4 dereferenceable(4)) local_unnamed_addr #0

; Function Attrs: argmemonly mustprogress nofree nounwind readonly willreturn
declare i64 @strlen(i8* nocapture) local_unnamed_addr #5

; Function Attrs: mustprogress nofree nounwind willreturn
declare double @pow(double, double) local_unnamed_addr #6

; Function Attrs: argmemonly mustprogress nofree nosync nounwind willreturn
declare void @llvm.lifetime.end.p0i8(i64 immarg, i8* nocapture) #4

declare void @_ZSt17__istream_extractRSiPcl(%"class.std::basic_istream"* nonnull align 8 dereferenceable(16), i8*, i64) local_unnamed_addr #0

declare nonnull align 8 dereferenceable(8) %"class.std::basic_ostream"* @_ZSt16__ostream_insertIcSt11char_traitsIcEERSt13basic_ostreamIT_T0_ES6_PKS3_l(%"class.std::basic_ostream"* nonnull align 8 dereferenceable(8), i8*, i64) local_unnamed_addr #0

; Function Attrs: sspstrong uwtable
define internal void @_GLOBAL__sub_I_984.cpp() #7 section ".text.startup" {
  tail call void @_ZNSt8ios_base4InitC1Ev(%"class.std::ios_base::Init"* nonnull align 1 dereferenceable(1) @_ZStL8__ioinit)
  %1 = tail call i32 @__cxa_atexit(void (i8*)* bitcast (void (%"class.std::ios_base::Init"*)* @_ZNSt8ios_base4InitD1Ev to void (i8*)*), i8* getelementptr inbounds (%"class.std::ios_base::Init", %"class.std::ios_base::Init"* @_ZStL8__ioinit, i64 0, i32 0), i8* nonnull @__dso_handle) #8
  ret void
}


!llvm.module.flags = !{!0, !1, !2, !3}
!llvm.ident = !{!4}

!0 = !{i32 1, !"wchar_size", i32 4}
!1 = !{i32 7, !"PIC Level", i32 2}
!2 = !{i32 7, !"PIE Level", i32 2}
!3 = !{i32 7, !"uwtable", i32 1}
!4 = !{!"clang version 13.0.0"}
!5 = !{!6, !6, i64 0}
!6 = !{!"int", !7, i64 0}
!7 = !{!"omnipotent char", !8, i64 0}
!8 = !{!"Simple C++ TBAA"}
!9 = !{!7, !7, i64 0}
!10 = distinct !{!10, !11}
!11 = !{!"llvm.loop.mustprogress"}
!12 = distinct !{!12, !11}
!13 = distinct !{!13, !11}
